target datalayout = "e-m:e-p270:32:32-p271:32:32-p272:64:64-i64:64-i128:128-f80:128-n8:16:32:64-S128"
target triple = "x86_64-pc-linux-gnu"

%"class.sat::cut" = type { i32, i32, [5 x i32], i64, i64 }
%"class.std::locale" = type { ptr }
%"class.std::ios_base" = type { ptr, i64, i64, i32, i32, i32, ptr, %"struct.std::ios_base::_Words", [8 x %"struct.std::ios_base::_Words"], i32, ptr, %"class.std::locale" }
%"struct.std::ios_base::_Words" = type { ptr, i64 }

@.str.4 = private unnamed_addr constant [2 x i8] c"{\00", align 1
@.str.5 = private unnamed_addr constant [2 x i8] c" \00", align 1
@.str.6 = private unnamed_addr constant [3 x i8] c"} \00", align 1
@.str.7 = private unnamed_addr constant [2 x i8] c"1\00", align 1
@.str.8 = private unnamed_addr constant [2 x i8] c"0\00", align 1

; Function Attrs: inlinehint mustprogress nounwind uwtable
define linkonce_odr noundef i32 @_ZStorSt12_Ios_IostateS_(i32 noundef %0, i32 noundef %1) #7 comdat {
  %3 = alloca i32, align 4
  %4 = alloca i32, align 4
  store i32 %0, ptr %3, align 4, !tbaa !112
  store i32 %1, ptr %4, align 4, !tbaa !112
  %5 = load i32, ptr %3, align 4, !tbaa !112
  %6 = load i32, ptr %4, align 4, !tbaa !112
  %7 = or i32 %5, %6
  ret i32 %7
}

; Function Attrs: mustprogress nounwind uwtable
define available_externally noundef i32 @_ZNKSt9basic_iosIcSt11char_traitsIcEE7rdstateEv(ptr noundef nonnull align 8 dereferenceable(264) %0) #6 align 2 {
  %2 = alloca ptr, align 8
  store ptr %0, ptr %2, align 8, !tbaa !110
  %3 = load ptr, ptr %2, align 8
  %4 = getelementptr inbounds nuw %"class.std::ios_base", ptr %3, i32 0, i32 5
  %5 = load i32, ptr %4, align 8, !tbaa !114
  ret i32 %5
}

; Function Attrs: mustprogress nounwind uwtable
define linkonce_odr hidden noundef i64 @_ZNK3sat3cut10table_maskEv(ptr noundef nonnull align 8 dereferenceable(48) %0) #6 comdat align 2 {
  %2 = alloca ptr, align 8
  store ptr %0, ptr %2, align 8, !tbaa !10
  %3 = load ptr, ptr %2, align 8
  %4 = getelementptr inbounds nuw %"class.sat::cut", ptr %3, i32 0, i32 1
  %5 = load i32, ptr %4, align 4, !tbaa !59
  %6 = zext i32 %5 to i64
  %7 = shl i64 1, %6
  %8 = shl i64 1, %7
  %9 = sub i64 %8, 1
  ret i64 %9
}

; Function Attrs: mustprogress nounwind uwtable
define linkonce_odr hidden noundef i64 @_ZNSt11char_traitsIcE6lengthEPKc(ptr noundef %0) #6 comdat align 2 {
  %2 = alloca ptr, align 8
  store ptr %0, ptr %2, align 8, !tbaa !55
  %3 = load ptr, ptr %2, align 8, !tbaa !55
  %4 = call i64 @strlen(ptr noundef %3) #3
  ret i64 %4
}

; Function Attrs: mustprogress uwtable
define available_externally void @_ZNSt9basic_iosIcSt11char_traitsIcEE8setstateESt12_Ios_Iostate(ptr noundef nonnull align 8 dereferenceable(264) %0, i32 noundef %1) #4 align 2 {
  %3 = alloca ptr, align 8
  %4 = alloca i32, align 4
  store ptr %0, ptr %3, align 8, !tbaa !110
  store i32 %1, ptr %4, align 4, !tbaa !112
  %5 = load ptr, ptr %3, align 8
  %6 = call noundef i32 @_ZNKSt9basic_iosIcSt11char_traitsIcEE7rdstateEv(ptr noundef nonnull align 8 dereferenceable(264) %5)
  %7 = load i32, ptr %4, align 4, !tbaa !112
  %8 = call noundef i32 @_ZStorSt12_Ios_IostateS_(i32 noundef %6, i32 noundef %7)
  call void @_ZNSt9basic_iosIcSt11char_traitsIcEE5clearESt12_Ios_Iostate(ptr noundef nonnull align 8 dereferenceable(264) %5, i32 noundef %8)
  ret void
}

; Function Attrs: mustprogress uwtable
define hidden noundef nonnull align 8 dereferenceable(8) ptr @_ZN3sat3cut13display_tableERSojm(ptr noundef nonnull align 8 dereferenceable(8) %0, i32 noundef %1, i64 noundef %2) #4 align 2 {
  %4 = alloca ptr, align 8
  %5 = alloca i32, align 4
  %6 = alloca i64, align 8
  %7 = alloca i32, align 4
  store ptr %0, ptr %4, align 8, !tbaa !53
  store i32 %1, ptr %5, align 4, !tbaa !12
  store i64 %2, ptr %6, align 8, !tbaa !28
  call void @llvm.lifetime.start.p0(i64 4, ptr %7) #3
  store i32 0, ptr %7, align 4, !tbaa !12
  br label %8

8:                                                ; preds = %28, %3
  %9 = load i32, ptr %7, align 4, !tbaa !12
  %10 = load i32, ptr %5, align 4, !tbaa !12
  %11 = shl i32 1, %10
  %12 = icmp ult i32 %9, %11
  br i1 %12, label %14, label %13

13:                                               ; preds = %8
  call void @llvm.lifetime.end.p0(i64 4, ptr %7) #3
  br label %31

14:                                               ; preds = %8
  %15 = load i64, ptr %6, align 8, !tbaa !28
  %16 = load i32, ptr %7, align 4, !tbaa !12
  %17 = zext i32 %16 to i64
  %18 = shl i64 1, %17
  %19 = and i64 %15, %18
  %20 = icmp ne i64 0, %19
  br i1 %20, label %21, label %24

21:                                               ; preds = %14
  %22 = load ptr, ptr %4, align 8, !tbaa !53
  %23 = call noundef nonnull align 8 dereferenceable(8) ptr @_ZStlsISt11char_traitsIcEERSt13basic_ostreamIcT_ES5_PKc(ptr noundef nonnull align 8 dereferenceable(8) %22, ptr noundef @.str.7)
  br label %27

24:                                               ; preds = %14
  %25 = load ptr, ptr %4, align 8, !tbaa !53
  %26 = call noundef nonnull align 8 dereferenceable(8) ptr @_ZStlsISt11char_traitsIcEERSt13basic_ostreamIcT_ES5_PKc(ptr noundef nonnull align 8 dereferenceable(8) %25, ptr noundef @.str.8)
  br label %27

27:                                               ; preds = %24, %21
  br label %28

28:                                               ; preds = %27
  %29 = load i32, ptr %7, align 4, !tbaa !12
  %30 = add i32 %29, 1
  store i32 %30, ptr %7, align 4, !tbaa !12
  br label %8, !llvm.loop !92

31:                                               ; preds = %13
  %32 = load ptr, ptr %4, align 8, !tbaa !53
  ret ptr %32
}

; Function Attrs: mustprogress uwtable
define linkonce_odr hidden noundef i64 @_ZNK3sat3cut5tableEv(ptr noundef nonnull align 8 dereferenceable(48) %0) #4 comdat align 2 {
  %2 = alloca ptr, align 8
  store ptr %0, ptr %2, align 8, !tbaa !10
  %3 = load ptr, ptr %2, align 8
  %4 = getelementptr inbounds nuw %"class.sat::cut", ptr %3, i32 0, i32 3
  %5 = load i64, ptr %4, align 8, !tbaa !65
  %6 = getelementptr inbounds nuw %"class.sat::cut", ptr %3, i32 0, i32 4
  %7 = load i64, ptr %6, align 8, !tbaa !66
  %8 = or i64 %5, %7
  %9 = call noundef i64 @_ZNK3sat3cut10table_maskEv(ptr noundef nonnull align 8 dereferenceable(48) %3)
  %10 = and i64 %8, %9
  ret i64 %10
}

; Function Attrs: mustprogress uwtable
define available_externally noundef nonnull align 8 dereferenceable(8) ptr @_ZNSolsEj(ptr noundef nonnull align 8 dereferenceable(8) %0, i32 noundef %1) #4 align 2 {
  %3 = alloca ptr, align 8
  %4 = alloca i32, align 4
  store ptr %0, ptr %3, align 8, !tbaa !53
  store i32 %1, ptr %4, align 4, !tbaa !12
  %5 = load ptr, ptr %3, align 8
  %6 = load i32, ptr %4, align 4, !tbaa !12
  %7 = zext i32 %6 to i64
  %8 = call noundef nonnull align 8 dereferenceable(8) ptr @_ZNSo9_M_insertImEERSoT_(ptr noundef nonnull align 8 dereferenceable(8) %5, i64 noundef %7)
  ret ptr %8
}

; Function Attrs: mustprogress nounwind uwtable
define linkonce_odr hidden noundef i32 @_ZNK3sat3cutixEj(ptr noundef nonnull align 8 dereferenceable(48) %0, i32 noundef %1) #6 comdat align 2 {
  %3 = alloca ptr, align 8
  %4 = alloca i32, align 4
  store ptr %0, ptr %3, align 8, !tbaa !10
  store i32 %1, ptr %4, align 4, !tbaa !12
  %5 = load ptr, ptr %3, align 8
  %6 = load i32, ptr %4, align 4, !tbaa !12
  %7 = getelementptr inbounds nuw %"class.sat::cut", ptr %5, i32 0, i32 1
  %8 = load i32, ptr %7, align 4, !tbaa !59
  %9 = icmp uge i32 %6, %8
  br i1 %9, label %10, label %11

10:                                               ; preds = %2
  br label %17

11:                                               ; preds = %2
  %12 = getelementptr inbounds nuw %"class.sat::cut", ptr %5, i32 0, i32 2
  %13 = load i32, ptr %4, align 4, !tbaa !12
  %14 = zext i32 %13 to i64
  %15 = getelementptr inbounds nuw [5 x i32], ptr %12, i64 0, i64 %14
  %16 = load i32, ptr %15, align 4, !tbaa !12
  br label %17

17:                                               ; preds = %11, %10
  %18 = phi i32 [ -1, %10 ], [ %16, %11 ]
  ret i32 %18
}

; Function Attrs: inlinehint mustprogress uwtable
define available_externally noundef nonnull align 8 dereferenceable(8) ptr @_ZStlsISt11char_traitsIcEERSt13basic_ostreamIcT_ES5_PKc(ptr noundef nonnull align 8 dereferenceable(8) %0, ptr noundef %1) #8 {
  %3 = alloca ptr, align 8
  %4 = alloca ptr, align 8
  store ptr %0, ptr %3, align 8, !tbaa !53
  store ptr %1, ptr %4, align 8, !tbaa !55
  %5 = load ptr, ptr %4, align 8, !tbaa !55
  %6 = icmp ne ptr %5, null
  br i1 %6, label %13, label %7

7:                                                ; preds = %2
  %8 = load ptr, ptr %3, align 8, !tbaa !53
  %9 = load ptr, ptr %8, align 8, !tbaa !57
  %10 = getelementptr i8, ptr %9, i64 -24
  %11 = load i64, ptr %10, align 8
  %12 = getelementptr inbounds i8, ptr %8, i64 %11
  call void @_ZNSt9basic_iosIcSt11char_traitsIcEE8setstateESt12_Ios_Iostate(ptr noundef nonnull align 8 dereferenceable(264) %12, i32 noundef 1)
  br label %19

13:                                               ; preds = %2
  %14 = load ptr, ptr %3, align 8, !tbaa !53
  %15 = load ptr, ptr %4, align 8, !tbaa !55
  %16 = load ptr, ptr %4, align 8, !tbaa !55
  %17 = call noundef i64 @_ZNSt11char_traitsIcE6lengthEPKc(ptr noundef %16)
  %18 = call noundef nonnull align 8 dereferenceable(8) ptr @_ZSt16__ostream_insertIcSt11char_traitsIcEERSt13basic_ostreamIT_T0_ES6_PKS3_l(ptr noundef nonnull align 8 dereferenceable(8) %14, ptr noundef %15, i64 noundef %17)
  br label %19

19:                                               ; preds = %13, %7
  %20 = load ptr, ptr %3, align 8, !tbaa !53
  ret ptr %20
}

; Function Attrs: mustprogress uwtable
define hidden noundef nonnull align 8 dereferenceable(8) ptr @_ZNK3sat3cut7displayERSo(ptr noundef nonnull align 8 dereferenceable(48) %0, ptr noundef nonnull align 8 dereferenceable(8) %1) #4 align 2 {
  %3 = alloca ptr, align 8
  %4 = alloca ptr, align 8
  %5 = alloca i32, align 4
  store ptr %0, ptr %3, align 8, !tbaa !10
  store ptr %1, ptr %4, align 8, !tbaa !53
  %6 = load ptr, ptr %3, align 8
  %7 = load ptr, ptr %4, align 8, !tbaa !53
  %8 = call noundef nonnull align 8 dereferenceable(8) ptr @_ZStlsISt11char_traitsIcEERSt13basic_ostreamIcT_ES5_PKc(ptr noundef nonnull align 8 dereferenceable(8) %7, ptr noundef @.str.4)
  call void @llvm.lifetime.start.p0(i64 4, ptr %5) #3
  store i32 0, ptr %5, align 4, !tbaa !12
  br label %9

9:                                                ; preds = %29, %2
  %10 = load i32, ptr %5, align 4, !tbaa !12
  %11 = getelementptr inbounds nuw %"class.sat::cut", ptr %6, i32 0, i32 1
  %12 = load i32, ptr %11, align 4, !tbaa !59
  %13 = icmp ult i32 %10, %12
  br i1 %13, label %15, label %14

14:                                               ; preds = %9
  call void @llvm.lifetime.end.p0(i64 4, ptr %5) #3
  br label %32

15:                                               ; preds = %9
  %16 = load ptr, ptr %4, align 8, !tbaa !53
  %17 = load i32, ptr %5, align 4, !tbaa !12
  %18 = call noundef i32 @_ZNK3sat3cutixEj(ptr noundef nonnull align 8 dereferenceable(48) %6, i32 noundef %17)
  %19 = call noundef nonnull align 8 dereferenceable(8) ptr @_ZNSolsEj(ptr noundef nonnull align 8 dereferenceable(8) %16, i32 noundef %18)
  %20 = load i32, ptr %5, align 4, !tbaa !12
  %21 = add i32 %20, 1
  %22 = getelementptr inbounds nuw %"class.sat::cut", ptr %6, i32 0, i32 1
  %23 = load i32, ptr %22, align 4, !tbaa !59
  %24 = icmp ult i32 %21, %23
  br i1 %24, label %25, label %28

25:                                               ; preds = %15
  %26 = load ptr, ptr %4, align 8, !tbaa !53
  %27 = call noundef nonnull align 8 dereferenceable(8) ptr @_ZStlsISt11char_traitsIcEERSt13basic_ostreamIcT_ES5_PKc(ptr noundef nonnull align 8 dereferenceable(8) %26, ptr noundef @.str.5)
  br label %28

28:                                               ; preds = %25, %15
  br label %29

29:                                               ; preds = %28
  %30 = load i32, ptr %5, align 4, !tbaa !12
  %31 = add i32 %30, 1
  store i32 %31, ptr %5, align 4, !tbaa !12
  br label %9, !llvm.loop !60

32:                                               ; preds = %14
  %33 = load ptr, ptr %4, align 8, !tbaa !53
  %34 = call noundef nonnull align 8 dereferenceable(8) ptr @_ZStlsISt11char_traitsIcEERSt13basic_ostreamIcT_ES5_PKc(ptr noundef nonnull align 8 dereferenceable(8) %33, ptr noundef @.str.6)
  %35 = load ptr, ptr %4, align 8, !tbaa !53
  %36 = getelementptr inbounds nuw %"class.sat::cut", ptr %6, i32 0, i32 1
  %37 = load i32, ptr %36, align 4, !tbaa !59
  %38 = call noundef i64 @_ZNK3sat3cut5tableEv(ptr noundef nonnull align 8 dereferenceable(48) %6)
  %39 = call noundef nonnull align 8 dereferenceable(8) ptr @_ZN3sat3cut13display_tableERSojm(ptr noundef nonnull align 8 dereferenceable(8) %35, i32 noundef %37, i64 noundef %38)
  %40 = load ptr, ptr %4, align 8, !tbaa !53
  ret ptr %40
}