; Function Attrs: mustprogress uwtable
define hidden noundef nonnull align 8 dereferenceable(8) ptr @_ZNK3sat3cut7displayERSo(ptr noundef nonnull readonly align 8 captures(none) dereferenceable(48) %0, ptr noundef nonnull returned align 8 dereferenceable(8) %1) local_unnamed_addr #3 align 2 {
  %3 = tail call noundef nonnull align 8 dereferenceable(8) ptr @_ZSt16__ostream_insertIcSt11char_traitsIcEERSt13basic_ostreamIT_T0_ES6_PKS3_l(ptr noundef nonnull align 8 dereferenceable(8) %1, ptr noundef nonnull @.str.4, i64 noundef 1)
  %4 = getelementptr inbounds nuw i8, ptr %0, i64 4
  %5 = load i32, ptr %4, align 4, !tbaa !15
  %.not = icmp eq i32 %5, 0
  br i1 %.not, label %._crit_edge, label %_ZNK3sat3cutixEj.exit.lr.ph

_ZNK3sat3cutixEj.exit.lr.ph:                      ; preds = %2
  %6 = getelementptr inbounds nuw i8, ptr %0, i64 8
  br label %_ZNK3sat3cutixEj.exit

._crit_edge:                                      ; preds = %34, %2
  %7 = tail call noundef nonnull align 8 dereferenceable(8) ptr @_ZSt16__ostream_insertIcSt11char_traitsIcEERSt13basic_ostreamIT_T0_ES6_PKS3_l(ptr noundef nonnull align 8 dereferenceable(8) %1, ptr noundef nonnull @.str.6, i64 noundef 2)
  %8 = load i32, ptr %4, align 4, !tbaa !15
  %9 = getelementptr inbounds nuw i8, ptr %0, i64 32
  %10 = load i64, ptr %9, align 8, !tbaa !44
  %11 = getelementptr inbounds nuw i8, ptr %0, i64 40
  %12 = load i64, ptr %11, align 8, !tbaa !45
  %13 = or i64 %12, %10
  %14 = zext nneg i32 %8 to i64
  %15 = shl nuw i64 1, %14
  %notmask.i.i = shl nsw i64 -1, %15
  %16 = xor i64 %notmask.i.i, -1
  %17 = and i64 %13, %16
  br label %18

18:                                               ; preds = %18, %._crit_edge
  %.07.i = phi i32 [ 0, %._crit_edge ], [ %23, %18 ]
  %19 = zext nneg i32 %.07.i to i64
  %20 = shl nuw i64 1, %19
  %21 = and i64 %17, %20
  %.not.i = icmp eq i64 %21, 0
  %.str.8..str.7.i = select i1 %.not.i, ptr @.str.8, ptr @.str.7
  %22 = tail call noundef nonnull align 8 dereferenceable(8) ptr @_ZSt16__ostream_insertIcSt11char_traitsIcEERSt13basic_ostreamIT_T0_ES6_PKS3_l(ptr noundef nonnull align 8 dereferenceable(8) %1, ptr noundef nonnull %.str.8..str.7.i, i64 noundef 1)
  %23 = add i32 %.07.i, 1
  %.0.highbits.i = lshr i32 %23, %8
  %24 = icmp eq i32 %.0.highbits.i, 0
  br i1 %24, label %18, label %_ZN3sat3cut13display_tableERSojm.exit, !llvm.loop !50

_ZN3sat3cut13display_tableERSojm.exit:            ; preds = %18
  ret ptr %1

_ZNK3sat3cutixEj.exit:                            ; preds = %_ZNK3sat3cutixEj.exit.lr.ph, %34
  %indvars.iv = phi i64 [ 0, %_ZNK3sat3cutixEj.exit.lr.ph ], [ %indvars.iv.next, %34 ]
  %25 = getelementptr inbounds nuw [5 x i32], ptr %6, i64 0, i64 %indvars.iv
  %26 = load i32, ptr %25, align 4, !tbaa !16
  %27 = zext i32 %26 to i64
  %28 = tail call noundef nonnull align 8 dereferenceable(8) ptr @_ZNSo9_M_insertImEERSoT_(ptr noundef nonnull align 8 dereferenceable(8) %1, i64 noundef %27)
  %indvars.iv.next = add nuw nsw i64 %indvars.iv, 1
  %29 = load i32, ptr %4, align 4, !tbaa !15
  %30 = zext i32 %29 to i64
  %31 = icmp samesign ult i64 %indvars.iv.next, %30
  br i1 %31, label %32, label %34

32:                                               ; preds = %_ZNK3sat3cutixEj.exit
  %33 = tail call noundef nonnull align 8 dereferenceable(8) ptr @_ZSt16__ostream_insertIcSt11char_traitsIcEERSt13basic_ostreamIT_T0_ES6_PKS3_l(ptr noundef nonnull align 8 dereferenceable(8) %1, ptr noundef nonnull @.str.5, i64 noundef 1)
  %.pre = load i32, ptr %4, align 4, !tbaa !15
  %.pre13 = zext i32 %.pre to i64
  br label %34

34:                                               ; preds = %_ZNK3sat3cutixEj.exit, %32
  %.pre-phi = phi i64 [ %30, %_ZNK3sat3cutixEj.exit ], [ %.pre13, %32 ]
  %35 = icmp samesign ult i64 %indvars.iv.next, %.pre-phi
  br i1 %35, label %_ZNK3sat3cutixEj.exit, label %._crit_edge, !llvm.loop !51
}